; Function Attrs: null_pointer_is_valid sspstrong uwtable
define internal void @nas_5gs_sm_pdu_ses_auth_res(ptr noundef %0, ptr noundef %1, ptr noundef initializes((384, 388)) %2, i32 noundef %3, i32 noundef %4) #0 {
  %6 = getelementptr inbounds nuw i8, ptr %2, i64 384
  store i32 1, ptr %6, align 8
  %7 = icmp slt i32 %4, 1
  br i1 %7, label %21, label %8

8:                                                ; preds = %5
  %9 = tail call zeroext i16 @elem_tlv_e(ptr noundef %0, ptr noundef %1, ptr noundef %2, i8 noundef zeroext 120, i32 noundef 16, i32 noundef 3, i32 noundef %3, i32 noundef %4, ptr noundef null)
  %10 = zext i16 %9 to i32
  %11 = sub nsw i32 %4, %10
  %12 = icmp slt i32 %11, 1
  br i1 %12, label %21, label %13

13:                                               ; preds = %8
  %14 = add i32 %3, %10
  %15 = tail call zeroext i16 @elem_tlv_e(ptr noundef %0, ptr noundef %1, ptr noundef %2, i8 noundef zeroext 123, i32 noundef 11, i32 noundef 28, i32 noundef %14, i32 noundef %11, ptr noundef null)
  %16 = zext i16 %15 to i32
  %.not36 = icmp eq i32 %11, %16
  br i1 %.not36, label %21, label %17

17:                                               ; preds = %13
  %18 = sub nsw i32 %11, %16
  %19 = add i32 %14, %16
  %20 = tail call ptr @proto_tree_add_expert(ptr noundef %1, ptr noundef %2, ptr noundef nonnull @ei_nas_5gs_extraneous_data, ptr noundef %0, i32 noundef %19, i32 noundef %18)
  br label %21

21:                                               ; preds = %13, %17, %8, %5
  ret void
}